; Function Attrs: mustprogress uwtable
define hidden noundef i32 @mbedtls_pk_sign(ptr noundef readonly captures(none) %0, i32 noundef %1, ptr noundef %2, i64 noundef %3, ptr noundef %4, i64 noundef %5, ptr noundef %6, ptr noundef %7, ptr noundef %8) local_unnamed_addr #1 {
  %10 = load ptr, ptr %0, align 8, !tbaa !3
  %11 = icmp eq ptr %10, null
  br i1 %11, label %mbedtls_pk_sign_restartable.exit, label %12

12:                                               ; preds = %9
  %.not.i.i = icmp eq i64 %3, 0
  br i1 %.not.i.i, label %13, label %19

13:                                               ; preds = %12
  %14 = tail call ptr @mbedtls_md_info_from_type(i32 noundef %1)
  %15 = icmp eq ptr %14, null
  br i1 %15, label %mbedtls_pk_sign_restartable.exit, label %16

16:                                               ; preds = %13
  %17 = tail call zeroext i8 @mbedtls_md_get_size(ptr noundef nonnull %14)
  %18 = zext i8 %17 to i64
  %.pre.i = load ptr, ptr %0, align 8, !tbaa !3
  br label %19

19:                                               ; preds = %16, %12
  %20 = phi ptr [ %10, %12 ], [ %.pre.i, %16 ]
  %.014.ph.i = phi i64 [ %3, %12 ], [ %18, %16 ]
  %21 = getelementptr inbounds nuw i8, ptr %20, i64 40
  %22 = load ptr, ptr %21, align 8, !tbaa !17
  %23 = icmp eq ptr %22, null
  br i1 %23, label %mbedtls_pk_sign_restartable.exit, label %24

24:                                               ; preds = %19
  %25 = getelementptr inbounds nuw i8, ptr %0, i64 8
  %26 = load ptr, ptr %25, align 8, !tbaa !13
  %27 = tail call noundef i32 %22(ptr noundef %26, i32 noundef %1, ptr noundef %2, i64 noundef %.014.ph.i, ptr noundef %4, i64 noundef %5, ptr noundef %6, ptr noundef %7, ptr noundef %8)
  br label %mbedtls_pk_sign_restartable.exit

mbedtls_pk_sign_restartable.exit:                 ; preds = %9, %13, %19, %24
  %.0.i = phi i32 [ %27, %24 ], [ -16000, %9 ], [ -16128, %19 ], [ -16000, %13 ]
  ret i32 %.0.i
}